target datalayout = "e-m:e-p270:32:32-p271:32:32-p272:64:64-i64:64-i128:128-f80:128-n8:16:32:64-S128"
target triple = "x86_64-pc-linux-gnu"

%struct.translation_ctx_st = type { ptr, i32, i32, ptr, i32, i32, ptr, i64, ptr, ptr, [50 x i8], ptr, ptr, i64 }

; Function Attrs: nounwind uwtable
define internal i32 @fix_oid(i32 noundef %0, ptr noundef %1, ptr noundef %2) #0 {
  %4 = alloca i32, align 4
  %5 = alloca i32, align 4
  %6 = alloca ptr, align 8
  %7 = alloca ptr, align 8
  %8 = alloca i32, align 4
  %9 = alloca i32, align 4
  store i32 %0, ptr %5, align 4, !tbaa !8
  store ptr %1, ptr %6, align 8, !tbaa !11
  store ptr %2, ptr %7, align 8, !tbaa !43
  call void @llvm.lifetime.start.p0(i64 4, ptr %8) #9
  %10 = load i32, ptr %5, align 4, !tbaa !8
  %11 = load ptr, ptr %6, align 8, !tbaa !11
  %12 = load ptr, ptr %7, align 8, !tbaa !43
  %13 = call i32 @default_check(i32 noundef %10, ptr noundef %11, ptr noundef %12)
  store i32 %13, ptr %8, align 4, !tbaa !8
  %14 = icmp sle i32 %13, 0
  br i1 %14, label %15, label %17

15:                                               ; preds = %3
  %16 = load i32, ptr %8, align 4, !tbaa !8
  store i32 %16, ptr %4, align 4
  store i32 1, ptr %9, align 4
  br label %81

17:                                               ; preds = %3
  %18 = load i32, ptr %5, align 4, !tbaa !8
  %19 = icmp eq i32 %18, 1
  br i1 %19, label %20, label %25

20:                                               ; preds = %17
  %21 = load ptr, ptr %7, align 8, !tbaa !43
  %22 = getelementptr inbounds nuw %struct.translation_ctx_st, ptr %21, i32 0, i32 1
  %23 = load i32, ptr %22, align 8, !tbaa !35
  %24 = icmp eq i32 %23, 2
  br i1 %24, label %33, label %25

25:                                               ; preds = %20, %17
  %26 = load i32, ptr %5, align 4, !tbaa !8
  %27 = icmp eq i32 %26, 8
  br i1 %27, label %28, label %48

28:                                               ; preds = %25
  %29 = load ptr, ptr %7, align 8, !tbaa !43
  %30 = getelementptr inbounds nuw %struct.translation_ctx_st, ptr %29, i32 0, i32 1
  %31 = load i32, ptr %30, align 8, !tbaa !35
  %32 = icmp eq i32 %31, 1
  br i1 %32, label %33, label %48

33:                                               ; preds = %28, %20
  %34 = load ptr, ptr %7, align 8, !tbaa !43
  %35 = getelementptr inbounds nuw %struct.translation_ctx_st, ptr %34, i32 0, i32 10
  %36 = getelementptr inbounds [50 x i8], ptr %35, i64 0, i64 0
  %37 = load ptr, ptr %7, align 8, !tbaa !43
  %38 = getelementptr inbounds nuw %struct.translation_ctx_st, ptr %37, i32 0, i32 6
  %39 = load ptr, ptr %38, align 8, !tbaa !40
  %40 = call i32 @OBJ_obj2txt(ptr noundef %36, i32 noundef 50, ptr noundef %39, i32 noundef 0)
  %41 = load ptr, ptr %7, align 8, !tbaa !43
  %42 = getelementptr inbounds nuw %struct.translation_ctx_st, ptr %41, i32 0, i32 10
  %43 = getelementptr inbounds [50 x i8], ptr %42, i64 0, i64 0
  %44 = load ptr, ptr %7, align 8, !tbaa !43
  %45 = getelementptr inbounds nuw %struct.translation_ctx_st, ptr %44, i32 0, i32 6
  store ptr %43, ptr %45, align 8, !tbaa !40
  %46 = load ptr, ptr %7, align 8, !tbaa !43
  %47 = getelementptr inbounds nuw %struct.translation_ctx_st, ptr %46, i32 0, i32 5
  store i32 0, ptr %47, align 4, !tbaa !39
  br label %48

48:                                               ; preds = %33, %28, %25
  %49 = load i32, ptr %5, align 4, !tbaa !8
  %50 = load ptr, ptr %6, align 8, !tbaa !11
  %51 = load ptr, ptr %7, align 8, !tbaa !43
  %52 = call i32 @default_fixup_args(i32 noundef %49, ptr noundef %50, ptr noundef %51)
  store i32 %52, ptr %8, align 4, !tbaa !8
  %53 = icmp sle i32 %52, 0
  br i1 %53, label %54, label %56

54:                                               ; preds = %48
  %55 = load i32, ptr %8, align 4, !tbaa !8
  store i32 %55, ptr %4, align 4
  store i32 1, ptr %9, align 4
  br label %81

56:                                               ; preds = %48
  %57 = load i32, ptr %5, align 4, !tbaa !8
  %58 = icmp eq i32 %57, 7
  br i1 %58, label %59, label %64

59:                                               ; preds = %56
  %60 = load ptr, ptr %7, align 8, !tbaa !43
  %61 = getelementptr inbounds nuw %struct.translation_ctx_st, ptr %60, i32 0, i32 1
  %62 = load i32, ptr %61, align 8, !tbaa !35
  %63 = icmp eq i32 %62, 2
  br i1 %63, label %72, label %64

64:                                               ; preds = %59, %56
  %65 = load i32, ptr %5, align 4, !tbaa !8
  %66 = icmp eq i32 %65, 2
  br i1 %66, label %67, label %79

67:                                               ; preds = %64
  %68 = load ptr, ptr %7, align 8, !tbaa !43
  %69 = getelementptr inbounds nuw %struct.translation_ctx_st, ptr %68, i32 0, i32 1
  %70 = load i32, ptr %69, align 8, !tbaa !35
  %71 = icmp eq i32 %70, 1
  br i1 %71, label %72, label %79

72:                                               ; preds = %67, %59
  %73 = load ptr, ptr %7, align 8, !tbaa !43
  %74 = getelementptr inbounds nuw %struct.translation_ctx_st, ptr %73, i32 0, i32 6
  %75 = load ptr, ptr %74, align 8, !tbaa !40
  %76 = call ptr @OBJ_txt2obj(ptr noundef %75, i32 noundef 0)
  %77 = load ptr, ptr %7, align 8, !tbaa !43
  %78 = getelementptr inbounds nuw %struct.translation_ctx_st, ptr %77, i32 0, i32 6
  store ptr %76, ptr %78, align 8, !tbaa !40
  br label %79

79:                                               ; preds = %72, %67, %64
  %80 = load i32, ptr %8, align 4, !tbaa !8
  store i32 %80, ptr %4, align 4
  store i32 1, ptr %9, align 4
  br label %81

81:                                               ; preds = %79, %54, %15
  call void @llvm.lifetime.end.p0(i64 4, ptr %8) #9
  %82 = load i32, ptr %4, align 4
  ret i32 %82
}