; Function Attrs: nounwind uwtable
define internal i32 @fix_oid(i32 noundef %0, ptr noundef captures(address_is_null) %1, ptr noundef %2) #0 {
  %4 = tail call fastcc i32 @default_check(i32 noundef %0, ptr noundef %1)
  %5 = icmp slt i32 %4, 1
  br i1 %5, label %37, label %6

6:                                                ; preds = %3
  switch i32 %0, label %21 [
    i32 1, label %7
    i32 8, label %11
  ]

7:                                                ; preds = %6
  %8 = getelementptr inbounds nuw i8, ptr %2, i64 8
  %9 = load i32, ptr %8, align 8, !tbaa !29
  %10 = icmp eq i32 %9, 2
  br i1 %10, label %15, label %21

11:                                               ; preds = %6
  %12 = getelementptr inbounds nuw i8, ptr %2, i64 8
  %13 = load i32, ptr %12, align 8, !tbaa !29
  %14 = icmp eq i32 %13, 1
  br i1 %14, label %15, label %21

15:                                               ; preds = %11, %7
  %16 = getelementptr inbounds nuw i8, ptr %2, i64 64
  %17 = getelementptr inbounds nuw i8, ptr %2, i64 32
  %18 = load ptr, ptr %17, align 8, !tbaa !35
  %19 = tail call i32 @OBJ_obj2txt(ptr noundef nonnull %16, i32 noundef 50, ptr noundef %18, i32 noundef 0) #8
  store ptr %16, ptr %17, align 8, !tbaa !35
  %20 = getelementptr inbounds nuw i8, ptr %2, i64 28
  store i32 0, ptr %20, align 4, !tbaa !34
  br label %21

21:                                               ; preds = %7, %6, %15, %11
  %22 = tail call i32 @default_fixup_args(i32 noundef %0, ptr noundef %1, ptr noundef %2)
  %23 = icmp slt i32 %22, 1
  br i1 %23, label %37, label %24

24:                                               ; preds = %21
  switch i32 %0, label %37 [
    i32 7, label %25
    i32 2, label %29
  ]

25:                                               ; preds = %24
  %26 = getelementptr inbounds nuw i8, ptr %2, i64 8
  %27 = load i32, ptr %26, align 8, !tbaa !29
  %28 = icmp eq i32 %27, 2
  br i1 %28, label %33, label %37

29:                                               ; preds = %24
  %30 = getelementptr inbounds nuw i8, ptr %2, i64 8
  %31 = load i32, ptr %30, align 8, !tbaa !29
  %32 = icmp eq i32 %31, 1
  br i1 %32, label %33, label %37

33:                                               ; preds = %29, %25
  %34 = getelementptr inbounds nuw i8, ptr %2, i64 32
  %35 = load ptr, ptr %34, align 8, !tbaa !35
  %36 = tail call ptr @OBJ_txt2obj(ptr noundef %35, i32 noundef 0) #8
  store ptr %36, ptr %34, align 8, !tbaa !35
  br label %37

37:                                               ; preds = %25, %29, %33, %24, %21, %3
  %.0 = phi i32 [ %4, %3 ], [ %22, %21 ], [ %22, %24 ], [ %22, %33 ], [ %22, %29 ], [ %22, %25 ]
  ret i32 %.0
}